target datalayout = "e-m:e-p270:32:32-p271:32:32-p272:64:64-i64:64-i128:128-f80:128-n8:16:32:64-S128"
target triple = "x86_64-pc-linux-gnu"

@.str.11 = private unnamed_addr constant [23 x i8] c"Error: couldn't load '\00", align 1
@.str.12 = private unnamed_addr constant [2 x i8] c"'\00", align 1

; Function Attrs: nounwind uwtable
define ptr @stb_include_file(ptr noundef %0, ptr noundef %1, ptr noundef %2, ptr noundef %3) #0 {
  %5 = alloca ptr, align 8
  %6 = alloca ptr, align 8
  %7 = alloca ptr, align 8
  %8 = alloca ptr, align 8
  %9 = alloca ptr, align 8
  %10 = alloca i64, align 8
  %11 = alloca ptr, align 8
  %12 = alloca ptr, align 8
  %13 = alloca i32, align 4
  store ptr %0, ptr %6, align 8, !tbaa !3
  store ptr %1, ptr %7, align 8, !tbaa !3
  store ptr %2, ptr %8, align 8, !tbaa !3
  store ptr %3, ptr %9, align 8, !tbaa !3
  call void @llvm.lifetime.start.p0(i64 8, ptr %10) #8
  call void @llvm.lifetime.start.p0(i64 8, ptr %11) #8
  call void @llvm.lifetime.start.p0(i64 8, ptr %12) #8
  %14 = load ptr, ptr %6, align 8, !tbaa !3
  %15 = call ptr @stb_include_load_file(ptr noundef %14, ptr noundef %10)
  store ptr %15, ptr %12, align 8, !tbaa !3
  %16 = load ptr, ptr %12, align 8, !tbaa !3
  %17 = icmp eq ptr %16, null
  br i1 %17, label %18, label %26

18:                                               ; preds = %4
  %19 = load ptr, ptr %9, align 8, !tbaa !3
  %20 = call ptr @strcpy(ptr noundef %19, ptr noundef @.str.11) #8
  %21 = load ptr, ptr %9, align 8, !tbaa !3
  %22 = load ptr, ptr %6, align 8, !tbaa !3
  %23 = call ptr @strcat(ptr noundef %21, ptr noundef %22) #8
  %24 = load ptr, ptr %9, align 8, !tbaa !3
  %25 = call ptr @strcat(ptr noundef %24, ptr noundef @.str.12) #8
  store ptr null, ptr %5, align 8
  store i32 1, ptr %13, align 4
  br label %35

26:                                               ; preds = %4
  %27 = load ptr, ptr %12, align 8, !tbaa !3
  %28 = load ptr, ptr %7, align 8, !tbaa !3
  %29 = load ptr, ptr %8, align 8, !tbaa !3
  %30 = load ptr, ptr %6, align 8, !tbaa !3
  %31 = load ptr, ptr %9, align 8, !tbaa !3
  %32 = call ptr @stb_include_string(ptr noundef %27, ptr noundef %28, ptr noundef %29, ptr noundef %30, ptr noundef %31)
  store ptr %32, ptr %11, align 8, !tbaa !3
  %33 = load ptr, ptr %12, align 8, !tbaa !3
  call void @free(ptr noundef %33) #8
  %34 = load ptr, ptr %11, align 8, !tbaa !3
  store ptr %34, ptr %5, align 8
  store i32 1, ptr %13, align 4
  br label %35

35:                                               ; preds = %26, %18
  call void @llvm.lifetime.end.p0(i64 8, ptr %12) #8
  call void @llvm.lifetime.end.p0(i64 8, ptr %11) #8
  call void @llvm.lifetime.end.p0(i64 8, ptr %10) #8
  %36 = load ptr, ptr %5, align 8
  ret ptr %36
}