; Function Attrs: nounwind uwtable
define noalias noundef ptr @stb_include_file(ptr noundef captures(address_is_null) %0, ptr noundef captures(address_is_null) %1, ptr noundef readonly captures(none) %2, ptr noundef %3) local_unnamed_addr #6 {
  %5 = alloca i64, align 8
  call void @llvm.lifetime.start.p0(i64 8, ptr nonnull %5) #16
  %6 = call ptr @stb_include_load_file(ptr noundef %0, ptr noundef nonnull %5)
  %7 = icmp eq ptr %6, null
  br i1 %7, label %8, label %10

8:                                                ; preds = %4
  call void @llvm.memcpy.p0.p0.i64(ptr noundef nonnull align 1 dereferenceable(23) %3, ptr noundef nonnull align 1 dereferenceable(23) @.str.11, i64 23, i1 false) #16
  %9 = call ptr @strcat(ptr noundef nonnull dereferenceable(1) %3, ptr noundef nonnull dereferenceable(1) %0) #16
  %strlen = call i64 @strlen(ptr nonnull dereferenceable(1) %3)
  %endptr = getelementptr inbounds i8, ptr %3, i64 %strlen
  store i16 39, ptr %endptr, align 1
  br label %12

10:                                               ; preds = %4
  %11 = call ptr @stb_include_string(ptr noundef nonnull %6, ptr noundef %1, ptr noundef %2, ptr noundef %0, ptr noundef %3)
  call void @free(ptr noundef nonnull %6) #16
  br label %12

12:                                               ; preds = %10, %8
  %.0 = phi ptr [ null, %8 ], [ %11, %10 ]
  call void @llvm.lifetime.end.p0(i64 8, ptr nonnull %5) #16
  ret ptr %.0
}